target datalayout = "e-m:e-p270:32:32-p271:32:32-p272:64:64-i64:64-i128:128-f80:128-n8:16:32:64-S128"
target triple = "x86_64-pc-linux-gnu"

%struct.file_buff_tag = type { i32, [8192 x i8], i64 }

; Function Attrs: nounwind uwtable
define internal void @html_output_flush(ptr noundef %0) #0 {
  %2 = alloca ptr, align 8
  store ptr %0, ptr %2, align 8, !tbaa !46
  %3 = load ptr, ptr %2, align 8, !tbaa !46
  %4 = icmp ne ptr %3, null
  br i1 %4, label %5, label %23

5:                                                ; preds = %1
  %6 = load ptr, ptr %2, align 8, !tbaa !46
  %7 = getelementptr inbounds nuw %struct.file_buff_tag, ptr %6, i32 0, i32 2
  %8 = load i64, ptr %7, align 8, !tbaa !57
  %9 = icmp ugt i64 %8, 0
  br i1 %9, label %10, label %23

10:                                               ; preds = %5
  %11 = load ptr, ptr %2, align 8, !tbaa !46
  %12 = getelementptr inbounds nuw %struct.file_buff_tag, ptr %11, i32 0, i32 0
  %13 = load i32, ptr %12, align 8, !tbaa !55
  %14 = load ptr, ptr %2, align 8, !tbaa !46
  %15 = getelementptr inbounds nuw %struct.file_buff_tag, ptr %14, i32 0, i32 1
  %16 = getelementptr inbounds [8192 x i8], ptr %15, i64 0, i64 0
  %17 = load ptr, ptr %2, align 8, !tbaa !46
  %18 = getelementptr inbounds nuw %struct.file_buff_tag, ptr %17, i32 0, i32 2
  %19 = load i64, ptr %18, align 8, !tbaa !57
  %20 = call i64 @cli_writen(i32 noundef %13, ptr noundef %16, i64 noundef %19)
  %21 = load ptr, ptr %2, align 8, !tbaa !46
  %22 = getelementptr inbounds nuw %struct.file_buff_tag, ptr %21, i32 0, i32 2
  store i64 0, ptr %22, align 8, !tbaa !57
  br label %23

23:                                               ; preds = %10, %5, %1
  ret void
}

; Function Attrs: inlinehint nounwind uwtable
define internal void @html_output_c(ptr noundef %0, i8 noundef zeroext %1) #8 {
  %3 = alloca ptr, align 8
  %4 = alloca i8, align 1
  store ptr %0, ptr %3, align 8, !tbaa !46
  store i8 %1, ptr %4, align 1, !tbaa !20
  %5 = load ptr, ptr %3, align 8, !tbaa !46
  %6 = icmp ne ptr %5, null
  br i1 %6, label %7, label %23

7:                                                ; preds = %2
  %8 = load ptr, ptr %3, align 8, !tbaa !46
  %9 = getelementptr inbounds nuw %struct.file_buff_tag, ptr %8, i32 0, i32 2
  %10 = load i64, ptr %9, align 8, !tbaa !57
  %11 = icmp eq i64 %10, 8192
  br i1 %11, label %12, label %14

12:                                               ; preds = %7
  %13 = load ptr, ptr %3, align 8, !tbaa !46
  call void @html_output_flush(ptr noundef %13)
  br label %14

14:                                               ; preds = %12, %7
  %15 = load i8, ptr %4, align 1, !tbaa !20
  %16 = load ptr, ptr %3, align 8, !tbaa !46
  %17 = getelementptr inbounds nuw %struct.file_buff_tag, ptr %16, i32 0, i32 1
  %18 = load ptr, ptr %3, align 8, !tbaa !46
  %19 = getelementptr inbounds nuw %struct.file_buff_tag, ptr %18, i32 0, i32 2
  %20 = load i64, ptr %19, align 8, !tbaa !57
  %21 = add i64 %20, 1
  store i64 %21, ptr %19, align 8, !tbaa !57
  %22 = getelementptr inbounds nuw [8192 x i8], ptr %17, i64 0, i64 %20
  store i8 %15, ptr %22, align 1, !tbaa !20
  br label %23

23:                                               ; preds = %14, %2
  ret void
}