; Function Attrs: inlinehint nounwind uwtable
define internal fastcc void @html_output_c(ptr noundef %0, i8 noundef zeroext %1) unnamed_addr #10 {
  %.not = icmp eq ptr %0, null
  br i1 %.not, label %15, label %3

3:                                                ; preds = %2
  %4 = getelementptr inbounds nuw i8, ptr %0, i64 8200
  %5 = load i64, ptr %4, align 8, !tbaa !36
  %6 = icmp eq i64 %5, 8192
  br i1 %6, label %html_output_flush.exit, label %10

html_output_flush.exit:                           ; preds = %3
  %7 = load i32, ptr %0, align 8, !tbaa !34
  %8 = getelementptr inbounds nuw i8, ptr %0, i64 4
  %9 = tail call i64 @cli_writen(i32 noundef %7, ptr noundef nonnull %8, i64 noundef 8192) #17
  br label %10

10:                                               ; preds = %html_output_flush.exit, %3
  %11 = phi i64 [ 0, %html_output_flush.exit ], [ %5, %3 ]
  %12 = getelementptr inbounds nuw i8, ptr %0, i64 4
  %13 = add i64 %11, 1
  store i64 %13, ptr %4, align 8, !tbaa !36
  %14 = getelementptr inbounds nuw [8192 x i8], ptr %12, i64 0, i64 %11
  store i8 %1, ptr %14, align 1, !tbaa !16
  br label %15

15:                                               ; preds = %10, %2
  ret void
}